target datalayout = "e-m:e-p270:32:32-p271:32:32-p272:64:64-i64:64-i128:128-f80:128-n8:16:32:64-S128"
target triple = "x86_64-pc-linux-gnu"

%class.JfrSamplerWindow = type { %struct.JfrSamplerParams, i64, i64, i64, i64 }
%struct.JfrSamplerParams = type { i64, i64, i64, i8 }
%class.JfrAdaptiveSampler = type <{ ptr, %class.JfrPRNG, ptr, ptr, ptr, double, double, i64, i64, i32, [4 x i8] }>
%class.JfrPRNG = type { i64 }
%"struct.Atomic::LoadImpl.5" = type { i8 }
%"struct.Atomic::PlatformLoad" = type { i8 }

; Function Attrs: mustprogress nounwind uwtable
define linkonce_odr hidden noundef i64 @_ZNK6Atomic12PlatformLoadILm8EEclImEET_PVKS3_(ptr noundef nonnull align 1 dereferenceable(1) %0, ptr noundef %1) #1 comdat align 2 {
  %3 = alloca ptr, align 8
  %4 = alloca ptr, align 8
  store ptr %0, ptr %3, align 8
  store ptr %1, ptr %4, align 8
  %5 = load ptr, ptr %4, align 8
  %6 = load volatile i64, ptr %5, align 8
  ret i64 %6
}

; Function Attrs: mustprogress nounwind uwtable
define linkonce_odr hidden noundef i64 @_ZNK6Atomic8LoadImplImNS_12PlatformLoadILm8EEEvEclEPVKm(ptr noundef nonnull align 1 dereferenceable(1) %0, ptr noundef %1) #1 comdat align 2 {
  %3 = alloca ptr, align 8
  %4 = alloca ptr, align 8
  %5 = alloca %"struct.Atomic::PlatformLoad", align 1
  store ptr %0, ptr %3, align 8
  store ptr %1, ptr %4, align 8
  %6 = load ptr, ptr %4, align 8
  %7 = call noundef i64 @_ZNK6Atomic12PlatformLoadILm8EEclImEET_PVKS3_(ptr noundef nonnull align 1 dereferenceable(1) %5, ptr noundef %6)
  ret i64 %7
}

; Function Attrs: mustprogress nounwind uwtable
define hidden noundef i64 @_ZNK16JfrSamplerWindow11sample_sizeEv(ptr noundef nonnull align 8 dereferenceable(64) %0) #1 align 2 {
  %2 = alloca ptr, align 8
  %3 = alloca i64, align 8
  store ptr %0, ptr %2, align 8
  %4 = load ptr, ptr %2, align 8
  %5 = call noundef i64 @_ZNK16JfrSamplerWindow15population_sizeEv(ptr noundef nonnull align 8 dereferenceable(64) %4)
  store i64 %5, ptr %3, align 8
  %6 = load i64, ptr %3, align 8
  %7 = getelementptr inbounds %class.JfrSamplerWindow, ptr %4, i32 0, i32 3
  %8 = load i64, ptr %7, align 8
  %9 = icmp ugt i64 %6, %8
  br i1 %9, label %10, label %12

10:                                               ; preds = %1
  %11 = call noundef i64 @_ZNK16JfrSamplerWindow15max_sample_sizeEv(ptr noundef nonnull align 8 dereferenceable(64) %4)
  br label %17

12:                                               ; preds = %1
  %13 = load i64, ptr %3, align 8
  %14 = getelementptr inbounds %class.JfrSamplerWindow, ptr %4, i32 0, i32 2
  %15 = load i64, ptr %14, align 8
  %16 = udiv i64 %13, %15
  br label %17

17:                                               ; preds = %12, %10
  %18 = phi i64 [ %11, %10 ], [ %16, %12 ]
  ret i64 %18
}

; Function Attrs: mustprogress nounwind uwtable
define linkonce_odr hidden noundef i64 @_ZN6Atomic4loadImEET_PVKS1_(ptr noundef %0) #1 comdat align 2 {
  %2 = alloca ptr, align 8
  %3 = alloca %"struct.Atomic::LoadImpl.5", align 1
  store ptr %0, ptr %2, align 8
  %4 = load ptr, ptr %2, align 8
  %5 = call noundef i64 @_ZNK6Atomic8LoadImplImNS_12PlatformLoadILm8EEEvEclEPVKm(ptr noundef nonnull align 1 dereferenceable(1) %3, ptr noundef %4)
  ret i64 %5
}

; Function Attrs: mustprogress nounwind uwtable
define hidden noundef i64 @_ZNK16JfrSamplerWindow4debtEv(ptr noundef nonnull align 8 dereferenceable(64) %0) #1 align 2 {
  %2 = alloca ptr, align 8
  store ptr %0, ptr %2, align 8
  %3 = load ptr, ptr %2, align 8
  %4 = getelementptr inbounds %class.JfrSamplerWindow, ptr %3, i32 0, i32 3
  %5 = load i64, ptr %4, align 8
  %6 = icmp eq i64 %5, 0
  br i1 %6, label %7, label %8

7:                                                ; preds = %1
  br label %14

8:                                                ; preds = %1
  %9 = call noundef i64 @_ZNK16JfrSamplerWindow11sample_sizeEv(ptr noundef nonnull align 8 dereferenceable(64) %3)
  %10 = getelementptr inbounds %class.JfrSamplerWindow, ptr %3, i32 0, i32 0
  %11 = getelementptr inbounds %struct.JfrSamplerParams, ptr %10, i32 0, i32 0
  %12 = load i64, ptr %11, align 8
  %13 = sub i64 %9, %12
  br label %14

14:                                               ; preds = %8, %7
  %15 = phi i64 [ 0, %7 ], [ %13, %8 ]
  ret i64 %15
}

; Function Attrs: mustprogress nounwind uwtable
define linkonce_odr hidden noundef i64 @_ZNK16JfrSamplerWindow15max_sample_sizeEv(ptr noundef nonnull align 8 dereferenceable(64) %0) #1 comdat align 2 {
  %2 = alloca ptr, align 8
  store ptr %0, ptr %2, align 8
  %3 = load ptr, ptr %2, align 8
  %4 = getelementptr inbounds %class.JfrSamplerWindow, ptr %3, i32 0, i32 3
  %5 = load i64, ptr %4, align 8
  %6 = getelementptr inbounds %class.JfrSamplerWindow, ptr %3, i32 0, i32 2
  %7 = load i64, ptr %6, align 8
  %8 = udiv i64 %5, %7
  ret i64 %8
}

; Function Attrs: mustprogress nounwind uwtable
define linkonce_odr hidden noundef i64 @_Z4nextm(i64 noundef %0) #1 comdat {
  %2 = alloca i64, align 8
  store i64 %0, ptr %2, align 8
  %3 = load i64, ptr %2, align 8
  %4 = mul i64 25214903917, %3
  %5 = add i64 %4, 11
  %6 = and i64 %5, 281474976710655
  ret i64 %6
}

; Function Attrs: mustprogress nounwind uwtable
define linkonce_odr hidden noundef double @_Z37exponentially_weighted_moving_averageddd(double noundef %0, double noundef %1, double noundef %2) #1 comdat {
  %4 = alloca double, align 8
  %5 = alloca double, align 8
  %6 = alloca double, align 8
  store double %0, ptr %4, align 8
  store double %1, ptr %5, align 8
  store double %2, ptr %6, align 8
  %7 = load double, ptr %5, align 8
  %8 = load double, ptr %4, align 8
  %9 = load double, ptr %5, align 8
  %10 = fsub double 1.000000e+00, %9
  %11 = load double, ptr %6, align 8
  %12 = fmul double %10, %11
  %13 = call double @llvm.fmuladd.f64(double %7, double %8, double %12)
  ret double %13
}

; Function Attrs: mustprogress nounwind uwtable
define hidden noundef i64 @_ZNK16JfrSamplerWindow15population_sizeEv(ptr noundef nonnull align 8 dereferenceable(64) %0) #1 align 2 {
  %2 = alloca ptr, align 8
  store ptr %0, ptr %2, align 8
  %3 = load ptr, ptr %2, align 8
  %4 = getelementptr inbounds %class.JfrSamplerWindow, ptr %3, i32 0, i32 4
  %5 = call noundef i64 @_ZN6Atomic4loadImEET_PVKS1_(ptr noundef %4)
  ret i64 %5
}

; Function Attrs: mustprogress nounwind uwtable
define hidden noundef i64 @_ZNK16JfrSamplerWindow16accumulated_debtEv(ptr noundef nonnull align 8 dereferenceable(64) %0) #1 align 2 {
  %2 = alloca ptr, align 8
  store ptr %0, ptr %2, align 8
  %3 = load ptr, ptr %2, align 8
  %4 = getelementptr inbounds %class.JfrSamplerWindow, ptr %3, i32 0, i32 3
  %5 = load i64, ptr %4, align 8
  %6 = icmp eq i64 %5, 0
  br i1 %6, label %7, label %8

7:                                                ; preds = %1
  br label %16

8:                                                ; preds = %1
  %9 = getelementptr inbounds %class.JfrSamplerWindow, ptr %3, i32 0, i32 0
  %10 = getelementptr inbounds %struct.JfrSamplerParams, ptr %9, i32 0, i32 0
  %11 = load i64, ptr %10, align 8
  %12 = call noundef i64 @_ZNK16JfrSamplerWindow15max_sample_sizeEv(ptr noundef nonnull align 8 dereferenceable(64) %3)
  %13 = sub i64 %11, %12
  %14 = call noundef i64 @_ZNK16JfrSamplerWindow4debtEv(ptr noundef nonnull align 8 dereferenceable(64) %3)
  %15 = add nsw i64 %13, %14
  br label %16

16:                                               ; preds = %8, %7
  %17 = phi i64 [ 0, %7 ], [ %15, %8 ]
  ret i64 %17
}

; Function Attrs: mustprogress nounwind uwtable
define linkonce_odr hidden noundef i64 @_Z14next_geometricdd(double noundef %0, double noundef %1) #1 comdat {
  %3 = alloca double, align 8
  %4 = alloca double, align 8
  store double %0, ptr %3, align 8
  store double %1, ptr %4, align 8
  %5 = load double, ptr %4, align 8
  %6 = fcmp oeq double %5, 0.000000e+00
  br i1 %6, label %7, label %8

7:                                                ; preds = %2
  store double 1.000000e-02, ptr %4, align 8
  br label %13

8:                                                ; preds = %2
  %9 = load double, ptr %4, align 8
  %10 = fcmp oeq double %9, 1.000000e+00
  br i1 %10, label %11, label %12

11:                                               ; preds = %8
  store double 0x3FEFAE147AE147AE, ptr %4, align 8
  br label %12

12:                                               ; preds = %11, %8
  br label %13

13:                                               ; preds = %12, %7
  %14 = load double, ptr %4, align 8
  %15 = fsub double 1.000000e+00, %14
  %16 = call double @log(double noundef %15) #9
  %17 = load double, ptr %3, align 8
  %18 = fsub double 1.000000e+00, %17
  %19 = call double @log(double noundef %18) #9
  %20 = fdiv double %16, %19
  %21 = call double @llvm.ceil.f64(double %20)
  %22 = fptoui double %21 to i64
  ret i64 %22
}

; Function Attrs: mustprogress nounwind uwtable
define linkonce_odr hidden noundef double @_ZNK7JfrPRNG12next_uniformEv(ptr noundef nonnull align 8 dereferenceable(8) %0) #1 comdat align 2 {
  %2 = alloca ptr, align 8
  store ptr %0, ptr %2, align 8
  %3 = load ptr, ptr %2, align 8
  %4 = getelementptr inbounds %class.JfrPRNG, ptr %3, i32 0, i32 0
  %5 = load i64, ptr %4, align 8
  %6 = call noundef i64 @_Z4nextm(i64 noundef %5)
  %7 = getelementptr inbounds %class.JfrPRNG, ptr %3, i32 0, i32 0
  store i64 %6, ptr %7, align 8
  %8 = getelementptr inbounds %class.JfrPRNG, ptr %3, i32 0, i32 0
  %9 = load i64, ptr %8, align 8
  %10 = lshr i64 %9, 22
  %11 = trunc i64 %10 to i32
  %12 = uitofp i32 %11 to double
  %13 = fdiv double %12, 0x4190000000000000
  ret double %13
}

; Function Attrs: mustprogress nounwind uwtable
define linkonce_odr hidden noundef double @_ZN18JfrAdaptiveSampler23project_population_sizeEPK16JfrSamplerWindow(ptr noundef nonnull align 8 dereferenceable(76) %0, ptr noundef %1) #1 comdat align 2 {
  %3 = alloca ptr, align 8
  %4 = alloca ptr, align 8
  store ptr %0, ptr %3, align 8
  store ptr %1, ptr %4, align 8
  %5 = load ptr, ptr %3, align 8
  %6 = load ptr, ptr %4, align 8
  %7 = call noundef i64 @_ZNK16JfrSamplerWindow15population_sizeEv(ptr noundef nonnull align 8 dereferenceable(64) %6)
  %8 = uitofp i64 %7 to double
  %9 = getelementptr inbounds %class.JfrAdaptiveSampler, ptr %5, i32 0, i32 6
  %10 = load double, ptr %9, align 8
  %11 = getelementptr inbounds %class.JfrAdaptiveSampler, ptr %5, i32 0, i32 5
  %12 = load double, ptr %11, align 8
  %13 = call noundef double @_Z37exponentially_weighted_moving_averageddd(double noundef %8, double noundef %10, double noundef %12)
  %14 = getelementptr inbounds %class.JfrAdaptiveSampler, ptr %5, i32 0, i32 5
  store double %13, ptr %14, align 8
  %15 = getelementptr inbounds %class.JfrAdaptiveSampler, ptr %5, i32 0, i32 5
  %16 = load double, ptr %15, align 8
  ret double %16
}

; Function Attrs: mustprogress nounwind uwtable
define hidden noundef i64 @_ZN18JfrAdaptiveSampler13amortize_debtEPK16JfrSamplerWindow(ptr noundef nonnull align 8 dereferenceable(76) %0, ptr noundef %1) #1 align 2 {
  %3 = alloca i64, align 8
  %4 = alloca ptr, align 8
  %5 = alloca ptr, align 8
  %6 = alloca i64, align 8
  store ptr %0, ptr %4, align 8
  store ptr %1, ptr %5, align 8
  %7 = load ptr, ptr %4, align 8
  %8 = load ptr, ptr %5, align 8
  %9 = call noundef i64 @_ZNK16JfrSamplerWindow16accumulated_debtEv(ptr noundef nonnull align 8 dereferenceable(64) %8)
  store i64 %9, ptr %6, align 8
  %10 = getelementptr inbounds %class.JfrAdaptiveSampler, ptr %7, i32 0, i32 8
  %11 = load i64, ptr %10, align 8
  %12 = getelementptr inbounds %class.JfrAdaptiveSampler, ptr %7, i32 0, i32 7
  %13 = load i64, ptr %12, align 8
  %14 = icmp eq i64 %11, %13
  br i1 %14, label %15, label %17

15:                                               ; preds = %2
  %16 = getelementptr inbounds %class.JfrAdaptiveSampler, ptr %7, i32 0, i32 8
  store i64 1, ptr %16, align 8
  store i64 0, ptr %3, align 8
  br label %23

17:                                               ; preds = %2
  %18 = getelementptr inbounds %class.JfrAdaptiveSampler, ptr %7, i32 0, i32 8
  %19 = load i64, ptr %18, align 8
  %20 = add i64 %19, 1
  store i64 %20, ptr %18, align 8
  %21 = load i64, ptr %6, align 8
  %22 = sub nsw i64 0, %21
  store i64 %22, ptr %3, align 8
  br label %23

23:                                               ; preds = %17, %15
  %24 = load i64, ptr %3, align 8
  ret i64 %24
}

; Function Attrs: mustprogress nounwind uwtable
define hidden noundef i64 @_ZN18JfrAdaptiveSampler24derive_sampling_intervalEdPK16JfrSamplerWindow(ptr noundef nonnull align 8 dereferenceable(76) %0, double noundef %1, ptr noundef %2) #1 align 2 {
  %4 = alloca i64, align 8
  %5 = alloca ptr, align 8
  %6 = alloca double, align 8
  %7 = alloca ptr, align 8
  %8 = alloca double, align 8
  %9 = alloca double, align 8
  store ptr %0, ptr %5, align 8
  store double %1, ptr %6, align 8
  store ptr %2, ptr %7, align 8
  %10 = load ptr, ptr %5, align 8
  %11 = load ptr, ptr %7, align 8
  %12 = call noundef double @_ZN18JfrAdaptiveSampler23project_population_sizeEPK16JfrSamplerWindow(ptr noundef nonnull align 8 dereferenceable(76) %10, ptr noundef %11)
  store double %12, ptr %8, align 8
  %13 = load double, ptr %8, align 8
  %14 = load double, ptr %6, align 8
  %15 = fcmp ole double %13, %14
  br i1 %15, label %16, label %17

16:                                               ; preds = %3
  store i64 1, ptr %4, align 8
  br label %25

17:                                               ; preds = %3
  %18 = load double, ptr %6, align 8
  %19 = load double, ptr %8, align 8
  %20 = fdiv double %18, %19
  store double %20, ptr %9, align 8
  %21 = load double, ptr %9, align 8
  %22 = getelementptr inbounds %class.JfrAdaptiveSampler, ptr %10, i32 0, i32 1
  %23 = call noundef double @_ZNK7JfrPRNG12next_uniformEv(ptr noundef nonnull align 8 dereferenceable(8) %22)
  %24 = call noundef i64 @_Z14next_geometricdd(double noundef %21, double noundef %23)
  store i64 %24, ptr %4, align 8
  br label %25

25:                                               ; preds = %17, %16
  %26 = load i64, ptr %4, align 8
  ret i64 %26
}

; Function Attrs: mustprogress nounwind uwtable
define hidden noundef i64 @_ZN18JfrAdaptiveSampler19project_sample_sizeERK16JfrSamplerParamsPK16JfrSamplerWindow(ptr noundef nonnull align 8 dereferenceable(76) %0, ptr noundef nonnull align 8 dereferenceable(32) %1, ptr noundef %2) #1 align 2 {
  %4 = alloca ptr, align 8
  %5 = alloca ptr, align 8
  %6 = alloca ptr, align 8
  store ptr %0, ptr %4, align 8
  store ptr %1, ptr %5, align 8
  store ptr %2, ptr %6, align 8
  %7 = load ptr, ptr %4, align 8
  %8 = load ptr, ptr %5, align 8
  %9 = getelementptr inbounds %struct.JfrSamplerParams, ptr %8, i32 0, i32 0
  %10 = load i64, ptr %9, align 8
  %11 = load ptr, ptr %6, align 8
  %12 = call noundef i64 @_ZN18JfrAdaptiveSampler13amortize_debtEPK16JfrSamplerWindow(ptr noundef nonnull align 8 dereferenceable(76) %7, ptr noundef %11)
  %13 = add i64 %10, %12
  ret i64 %13
}

; Function Attrs: mustprogress nounwind uwtable
define linkonce_odr hidden noundef ptr @_ZNK18JfrAdaptiveSampler11next_windowEPK16JfrSamplerWindow(ptr noundef nonnull align 8 dereferenceable(76) %0, ptr noundef %1) #1 comdat align 2 {
  %3 = alloca ptr, align 8
  %4 = alloca ptr, align 8
  store ptr %0, ptr %3, align 8
  store ptr %1, ptr %4, align 8
  %5 = load ptr, ptr %3, align 8
  %6 = load ptr, ptr %4, align 8
  %7 = getelementptr inbounds %class.JfrAdaptiveSampler, ptr %5, i32 0, i32 2
  %8 = load ptr, ptr %7, align 8
  %9 = icmp eq ptr %6, %8
  br i1 %9, label %10, label %13

10:                                               ; preds = %2
  %11 = getelementptr inbounds %class.JfrAdaptiveSampler, ptr %5, i32 0, i32 3
  %12 = load ptr, ptr %11, align 8
  br label %16

13:                                               ; preds = %2
  %14 = getelementptr inbounds %class.JfrAdaptiveSampler, ptr %5, i32 0, i32 2
  %15 = load ptr, ptr %14, align 8
  br label %16

16:                                               ; preds = %13, %10
  %17 = phi ptr [ %12, %10 ], [ %15, %13 ]
  ret ptr %17
}

; Function Attrs: mustprogress nounwind uwtable
define hidden noundef ptr @_ZN18JfrAdaptiveSampler8set_rateERK16JfrSamplerParamsPK16JfrSamplerWindow(ptr noundef nonnull align 8 dereferenceable(76) %0, ptr noundef nonnull align 8 dereferenceable(32) %1, ptr noundef %2) #1 align 2 {
  %4 = alloca ptr, align 8
  %5 = alloca ptr, align 8
  %6 = alloca ptr, align 8
  %7 = alloca ptr, align 8
  %8 = alloca ptr, align 8
  %9 = alloca i64, align 8
  store ptr %0, ptr %5, align 8
  store ptr %1, ptr %6, align 8
  store ptr %2, ptr %7, align 8
  %10 = load ptr, ptr %5, align 8
  %11 = load ptr, ptr %7, align 8
  %12 = call noundef ptr @_ZNK18JfrAdaptiveSampler11next_windowEPK16JfrSamplerWindow(ptr noundef nonnull align 8 dereferenceable(76) %10, ptr noundef %11)
  store ptr %12, ptr %8, align 8
  %13 = load ptr, ptr %6, align 8
  %14 = load ptr, ptr %7, align 8
  %15 = call noundef i64 @_ZN18JfrAdaptiveSampler19project_sample_sizeERK16JfrSamplerParamsPK16JfrSamplerWindow(ptr noundef nonnull align 8 dereferenceable(76) %10, ptr noundef nonnull align 8 dereferenceable(32) %13, ptr noundef %14)
  store i64 %15, ptr %9, align 8
  %16 = load i64, ptr %9, align 8
  %17 = icmp eq i64 %16, 0
  br i1 %17, label %18, label %22

18:                                               ; preds = %3
  %19 = load ptr, ptr %8, align 8
  %20 = getelementptr inbounds %class.JfrSamplerWindow, ptr %19, i32 0, i32 3
  store i64 0, ptr %20, align 8
  %21 = load ptr, ptr %8, align 8
  store ptr %21, ptr %4, align 8
  br label %37

22:                                               ; preds = %3
  %23 = load i64, ptr %9, align 8
  %24 = uitofp i64 %23 to double
  %25 = load ptr, ptr %7, align 8
  %26 = call noundef i64 @_ZN18JfrAdaptiveSampler24derive_sampling_intervalEdPK16JfrSamplerWindow(ptr noundef nonnull align 8 dereferenceable(76) %10, double noundef %24, ptr noundef %25)
  %27 = load ptr, ptr %8, align 8
  %28 = getelementptr inbounds %class.JfrSamplerWindow, ptr %27, i32 0, i32 2
  store i64 %26, ptr %28, align 8
  %29 = load i64, ptr %9, align 8
  %30 = load ptr, ptr %8, align 8
  %31 = getelementptr inbounds %class.JfrSamplerWindow, ptr %30, i32 0, i32 2
  %32 = load i64, ptr %31, align 8
  %33 = mul i64 %29, %32
  %34 = load ptr, ptr %8, align 8
  %35 = getelementptr inbounds %class.JfrSamplerWindow, ptr %34, i32 0, i32 3
  store i64 %33, ptr %35, align 8
  %36 = load ptr, ptr %8, align 8
  store ptr %36, ptr %4, align 8
  br label %37

37:                                               ; preds = %22, %18
  %38 = load ptr, ptr %4, align 8
  ret ptr %38
}