; Function Attrs: mustprogress nofree nounwind willreturn memory(write, argmem: readwrite, inaccessiblemem: readwrite) uwtable
define hidden noundef ptr @_ZN18JfrAdaptiveSampler8set_rateERK16JfrSamplerParamsPK16JfrSamplerWindow(ptr nocapture noundef nonnull align 8 dereferenceable(76) %0, ptr nocapture noundef nonnull readonly align 8 dereferenceable(32) %1, ptr noundef %2) local_unnamed_addr #8 align 2 {
  %4 = getelementptr inbounds i8, ptr %0, i64 16
  %5 = load ptr, ptr %4, align 8
  %6 = icmp eq ptr %5, %2
  %7 = getelementptr inbounds i8, ptr %0, i64 24
  %8 = load ptr, ptr %7, align 8
  %9 = select i1 %6, ptr %8, ptr %5
  %10 = load i64, ptr %1, align 8
  %11 = getelementptr inbounds i8, ptr %2, i64 48
  %12 = load i64, ptr %11, align 8
  %13 = icmp eq i64 %12, 0
  br i1 %13, label %_ZN18JfrAdaptiveSampler19project_sample_sizeERK16JfrSamplerParamsPK16JfrSamplerWindow.exit, label %_ZNK16JfrSamplerWindow4debtEv.exit.i.i.i

_ZNK16JfrSamplerWindow4debtEv.exit.i.i.i:         ; preds = %3
  %14 = getelementptr inbounds i8, ptr %2, i64 40
  %15 = load i64, ptr %14, align 8
  %16 = udiv i64 %12, %15
  %17 = getelementptr inbounds i8, ptr %2, i64 56
  %18 = load volatile i64, ptr %17, align 8
  %..i.i.i.i.i = tail call i64 @llvm.umin.i64(i64 %18, i64 %12)
  %19 = udiv i64 %..i.i.i.i.i, %15
  %.neg.i.i = sub i64 %16, %19
  br label %_ZN18JfrAdaptiveSampler19project_sample_sizeERK16JfrSamplerParamsPK16JfrSamplerWindow.exit

_ZN18JfrAdaptiveSampler19project_sample_sizeERK16JfrSamplerParamsPK16JfrSamplerWindow.exit: ; preds = %3, %_ZNK16JfrSamplerWindow4debtEv.exit.i.i.i
  %.neg4.i.i = phi i64 [ %.neg.i.i, %_ZNK16JfrSamplerWindow4debtEv.exit.i.i.i ], [ 0, %3 ]
  %20 = getelementptr inbounds i8, ptr %0, i64 64
  %21 = load i64, ptr %20, align 8
  %22 = getelementptr inbounds i8, ptr %0, i64 56
  %23 = load i64, ptr %22, align 8
  %24 = icmp eq i64 %21, %23
  %25 = add i64 %21, 1
  %storemerge.i.i = select i1 %24, i64 1, i64 %25
  %.0.i.i = select i1 %24, i64 0, i64 %.neg4.i.i
  store i64 %storemerge.i.i, ptr %20, align 8
  %26 = add i64 %.0.i.i, %10
  %27 = icmp eq i64 %26, 0
  br i1 %27, label %65, label %28

28:                                               ; preds = %_ZN18JfrAdaptiveSampler19project_sample_sizeERK16JfrSamplerParamsPK16JfrSamplerWindow.exit
  %29 = uitofp i64 %26 to double
  %30 = getelementptr inbounds i8, ptr %2, i64 56
  %31 = load volatile i64, ptr %30, align 8
  %32 = uitofp i64 %31 to double
  %33 = getelementptr inbounds i8, ptr %0, i64 48
  %34 = load double, ptr %33, align 8
  %35 = getelementptr inbounds i8, ptr %0, i64 40
  %36 = load double, ptr %35, align 8
  %37 = fsub double 1.000000e+00, %34
  %38 = fmul double %37, %36
  %39 = tail call noundef double @llvm.fmuladd.f64(double %34, double %32, double %38)
  store double %39, ptr %35, align 8
  %40 = fcmp ugt double %39, %29
  br i1 %40, label %41, label %_ZN18JfrAdaptiveSampler24derive_sampling_intervalEdPK16JfrSamplerWindow.exit

41:                                               ; preds = %28
  %42 = fdiv double %29, %39
  %43 = getelementptr inbounds i8, ptr %0, i64 8
  %44 = load i64, ptr %43, align 8
  %45 = mul i64 %44, 25214903917
  %46 = add i64 %45, 11
  %47 = and i64 %46, 281474976710655
  store i64 %47, ptr %43, align 8
  %48 = lshr i64 %47, 22
  %49 = trunc nuw nsw i64 %48 to i32
  %50 = uitofp nneg i32 %49 to double
  %51 = fmul double %50, 0x3E50000000000000
  %52 = fcmp oeq double %51, 0.000000e+00
  br i1 %52, label %_Z14next_geometricdd.exit.i, label %53

53:                                               ; preds = %41
  %54 = fcmp oeq double %51, 1.000000e+00
  br i1 %54, label %55, label %_Z14next_geometricdd.exit.i

55:                                               ; preds = %53
  br label %_Z14next_geometricdd.exit.i

_Z14next_geometricdd.exit.i:                      ; preds = %55, %53, %41
  %.0.i.i14 = phi double [ 0x3FEFAE147AE147AE, %55 ], [ %51, %53 ], [ 1.000000e-02, %41 ]
  %56 = fsub double 1.000000e+00, %.0.i.i14
  %57 = tail call double @log(double noundef %56) #16
  %58 = fsub double 1.000000e+00, %42
  %59 = tail call double @log(double noundef %58) #16
  %60 = fdiv double %57, %59
  %61 = tail call double @llvm.ceil.f64(double %60)
  %62 = fptoui double %61 to i64
  br label %_ZN18JfrAdaptiveSampler24derive_sampling_intervalEdPK16JfrSamplerWindow.exit

_ZN18JfrAdaptiveSampler24derive_sampling_intervalEdPK16JfrSamplerWindow.exit: ; preds = %28, %_Z14next_geometricdd.exit.i
  %.0.i = phi i64 [ %62, %_Z14next_geometricdd.exit.i ], [ 1, %28 ]
  %63 = getelementptr inbounds i8, ptr %9, i64 40
  store i64 %.0.i, ptr %63, align 8
  %64 = mul i64 %.0.i, %26
  br label %65

65:                                               ; preds = %_ZN18JfrAdaptiveSampler19project_sample_sizeERK16JfrSamplerParamsPK16JfrSamplerWindow.exit, %_ZN18JfrAdaptiveSampler24derive_sampling_intervalEdPK16JfrSamplerWindow.exit
  %.sink = phi i64 [ %64, %_ZN18JfrAdaptiveSampler24derive_sampling_intervalEdPK16JfrSamplerWindow.exit ], [ 0, %_ZN18JfrAdaptiveSampler19project_sample_sizeERK16JfrSamplerParamsPK16JfrSamplerWindow.exit ]
  %66 = getelementptr inbounds i8, ptr %9, i64 48
  store i64 %.sink, ptr %66, align 8
  ret ptr %9
}